target datalayout = "e-m:e-p270:32:32-p271:32:32-p272:64:64-i64:64-i128:128-f80:128-n8:16:32:64-S128"
target triple = "x86_64-pc-linux-gnu"

@.str.6 = private unnamed_addr constant [37 x i8] c"PRTE ERROR: %s in file %s at line %d\00", align 1
@.str.7 = private unnamed_addr constant [19 x i8] c"ras_slurm_module.c\00", align 1
@.str.43 = private unnamed_addr constant [4 x i8] c"%lu\00", align 1

; Function Attrs: inlinehint nounwind willreturn memory(read) uwtable
define available_externally i32 @atoi(ptr noundef nonnull %0) #13 {
  %2 = alloca ptr, align 8
  store ptr %0, ptr %2, align 8, !tbaa !3
  %3 = load ptr, ptr %2, align 8, !tbaa !3
  %4 = call i64 @strtol(ptr noundef %3, ptr noundef null, i32 noundef 10) #14
  %5 = trunc i64 %4 to i32
  ret i32 %5
}

; Function Attrs: nounwind uwtable
define internal i32 @prte_ras_slurm_parse_range(ptr noundef %0, ptr noundef %1, ptr noundef %2) #0 {
  %4 = alloca i32, align 4
  %5 = alloca ptr, align 8
  %6 = alloca ptr, align 8
  %7 = alloca ptr, align 8
  %8 = alloca ptr, align 8
  %9 = alloca [8192 x i8], align 16
  %10 = alloca i64, align 8
  %11 = alloca i64, align 8
  %12 = alloca i64, align 8
  %13 = alloca i64, align 8
  %14 = alloca i64, align 8
  %15 = alloca i64, align 8
  %16 = alloca i64, align 8
  %17 = alloca i64, align 8
  %18 = alloca i8, align 1
  %19 = alloca i32, align 4
  %20 = alloca i32, align 4
  store ptr %0, ptr %5, align 8, !tbaa !3
  store ptr %1, ptr %6, align 8, !tbaa !3
  store ptr %2, ptr %7, align 8, !tbaa !145
  call void @llvm.lifetime.start.p0(i64 8, ptr %8) #14
  call void @llvm.lifetime.start.p0(i64 8192, ptr %9) #14
  call void @llvm.lifetime.start.p0(i64 8, ptr %10) #14
  call void @llvm.lifetime.start.p0(i64 8, ptr %11) #14
  call void @llvm.lifetime.start.p0(i64 8, ptr %12) #14
  call void @llvm.lifetime.start.p0(i64 8, ptr %13) #14
  call void @llvm.lifetime.start.p0(i64 8, ptr %14) #14
  call void @llvm.lifetime.start.p0(i64 8, ptr %15) #14
  call void @llvm.lifetime.start.p0(i64 8, ptr %16) #14
  call void @llvm.lifetime.start.p0(i64 8, ptr %17) #14
  call void @llvm.lifetime.start.p0(i64 1, ptr %18) #14
  call void @llvm.lifetime.start.p0(i64 4, ptr %19) #14
  %21 = load ptr, ptr %6, align 8, !tbaa !3
  %22 = call i64 @strlen(ptr noundef %21) #16
  store i64 %22, ptr %15, align 8, !tbaa !143
  %23 = load ptr, ptr %5, align 8, !tbaa !3
  %24 = call i64 @strlen(ptr noundef %23) #16
  store i64 %24, ptr %14, align 8, !tbaa !143
  store i64 0, ptr %13, align 8, !tbaa !143
  store i64 0, ptr %12, align 8, !tbaa !143
  store i8 0, ptr %18, align 1, !tbaa !93
  store i64 0, ptr %10, align 8, !tbaa !143
  br label %25

25:                                               ; preds = %54, %3
  %26 = load i64, ptr %10, align 8, !tbaa !143
  %27 = load i64, ptr %15, align 8, !tbaa !143
  %28 = icmp ult i64 %26, %27
  br i1 %28, label %29, label %57

29:                                               ; preds = %25
  %30 = call ptr @__ctype_b_loc() #15
  %31 = load ptr, ptr %30, align 8, !tbaa !91
  %32 = load ptr, ptr %6, align 8, !tbaa !3
  %33 = load i64, ptr %10, align 8, !tbaa !143
  %34 = getelementptr inbounds nuw i8, ptr %32, i64 %33
  %35 = load i8, ptr %34, align 1, !tbaa !41
  %36 = sext i8 %35 to i32
  %37 = sext i32 %36 to i64
  %38 = getelementptr inbounds i16, ptr %31, i64 %37
  %39 = load i16, ptr %38, align 2, !tbaa !8
  %40 = zext i16 %39 to i32
  %41 = and i32 %40, 2048
  %42 = icmp ne i32 %41, 0
  br i1 %42, label %43, label %53

43:                                               ; preds = %29
  %44 = load i8, ptr %18, align 1, !tbaa !93, !range !15, !noundef !16
  %45 = trunc i8 %44 to i1
  br i1 %45, label %52, label %46

46:                                               ; preds = %43
  %47 = load ptr, ptr %6, align 8, !tbaa !3
  %48 = load i64, ptr %10, align 8, !tbaa !143
  %49 = getelementptr inbounds nuw i8, ptr %47, i64 %48
  %50 = call i32 @atoi(ptr noundef %49) #16
  %51 = sext i32 %50 to i64
  store i64 %51, ptr %12, align 8, !tbaa !143
  store i8 1, ptr %18, align 1, !tbaa !93
  br label %57

52:                                               ; preds = %43
  br label %53

53:                                               ; preds = %52, %29
  br label %54

54:                                               ; preds = %53
  %55 = load i64, ptr %10, align 8, !tbaa !143
  %56 = add i64 %55, 1
  store i64 %56, ptr %10, align 8, !tbaa !143
  br label %25, !llvm.loop !148

57:                                               ; preds = %46, %25
  %58 = load i8, ptr %18, align 1, !tbaa !93, !range !15, !noundef !16
  %59 = trunc i8 %58 to i1
  br i1 %59, label %65, label %60

60:                                               ; preds = %57
  br label %61

61:                                               ; preds = %60
  %62 = call ptr @prte_strerror(i32 noundef -13)
  call void (i32, ptr, ...) @pmix_output(i32 noundef 0, ptr noundef @.str.6, ptr noundef %62, ptr noundef @.str.7, i32 noundef 663)
  br label %63

63:                                               ; preds = %61
  br label %64

64:                                               ; preds = %63
  store i32 -13, ptr %4, align 4
  store i32 1, ptr %20, align 4
  br label %217

65:                                               ; preds = %57
  store i8 0, ptr %18, align 1, !tbaa !93
  store i64 0, ptr %17, align 8, !tbaa !143
  br label %66

66:                                               ; preds = %86, %65
  %67 = load i64, ptr %10, align 8, !tbaa !143
  %68 = load i64, ptr %15, align 8, !tbaa !143
  %69 = icmp ult i64 %67, %68
  br i1 %69, label %70, label %91

70:                                               ; preds = %66
  %71 = call ptr @__ctype_b_loc() #15
  %72 = load ptr, ptr %71, align 8, !tbaa !91
  %73 = load ptr, ptr %6, align 8, !tbaa !3
  %74 = load i64, ptr %10, align 8, !tbaa !143
  %75 = getelementptr inbounds nuw i8, ptr %73, i64 %74
  %76 = load i8, ptr %75, align 1, !tbaa !41
  %77 = sext i8 %76 to i32
  %78 = sext i32 %77 to i64
  %79 = getelementptr inbounds i16, ptr %72, i64 %78
  %80 = load i16, ptr %79, align 2, !tbaa !8
  %81 = zext i16 %80 to i32
  %82 = and i32 %81, 2048
  %83 = icmp ne i32 %82, 0
  br i1 %83, label %85, label %84

84:                                               ; preds = %70
  br label %91

85:                                               ; preds = %70
  br label %86

86:                                               ; preds = %85
  %87 = load i64, ptr %10, align 8, !tbaa !143
  %88 = add i64 %87, 1
  store i64 %88, ptr %10, align 8, !tbaa !143
  %89 = load i64, ptr %17, align 8, !tbaa !143
  %90 = add i64 %89, 1
  store i64 %90, ptr %17, align 8, !tbaa !143
  br label %66, !llvm.loop !149

91:                                               ; preds = %84, %66
  %92 = load i64, ptr %10, align 8, !tbaa !143
  %93 = load i64, ptr %15, align 8, !tbaa !143
  %94 = icmp uge i64 %92, %93
  br i1 %94, label %95, label %97

95:                                               ; preds = %91
  %96 = load i64, ptr %12, align 8, !tbaa !143
  store i64 %96, ptr %13, align 8, !tbaa !143
  store i8 1, ptr %18, align 1, !tbaa !93
  br label %127

97:                                               ; preds = %91
  br label %98

98:                                               ; preds = %123, %97
  %99 = load i64, ptr %10, align 8, !tbaa !143
  %100 = load i64, ptr %15, align 8, !tbaa !143
  %101 = icmp ult i64 %99, %100
  br i1 %101, label %102, label %126

102:                                              ; preds = %98
  %103 = call ptr @__ctype_b_loc() #15
  %104 = load ptr, ptr %103, align 8, !tbaa !91
  %105 = load ptr, ptr %6, align 8, !tbaa !3
  %106 = load i64, ptr %10, align 8, !tbaa !143
  %107 = getelementptr inbounds nuw i8, ptr %105, i64 %106
  %108 = load i8, ptr %107, align 1, !tbaa !41
  %109 = sext i8 %108 to i32
  %110 = sext i32 %109 to i64
  %111 = getelementptr inbounds i16, ptr %104, i64 %110
  %112 = load i16, ptr %111, align 2, !tbaa !8
  %113 = zext i16 %112 to i32
  %114 = and i32 %113, 2048
  %115 = icmp ne i32 %114, 0
  br i1 %115, label %116, label %122

116:                                              ; preds = %102
  %117 = load ptr, ptr %6, align 8, !tbaa !3
  %118 = load i64, ptr %10, align 8, !tbaa !143
  %119 = getelementptr inbounds nuw i8, ptr %117, i64 %118
  %120 = call i32 @atoi(ptr noundef %119) #16
  %121 = sext i32 %120 to i64
  store i64 %121, ptr %13, align 8, !tbaa !143
  store i8 1, ptr %18, align 1, !tbaa !93
  br label %126

122:                                              ; preds = %102
  br label %123

123:                                              ; preds = %122
  %124 = load i64, ptr %10, align 8, !tbaa !143
  %125 = add i64 %124, 1
  store i64 %125, ptr %10, align 8, !tbaa !143
  br label %98, !llvm.loop !150

126:                                              ; preds = %116, %98
  br label %127

127:                                              ; preds = %126, %95
  %128 = load i8, ptr %18, align 1, !tbaa !93, !range !15, !noundef !16
  %129 = trunc i8 %128 to i1
  br i1 %129, label %135, label %130

130:                                              ; preds = %127
  br label %131

131:                                              ; preds = %130
  %132 = call ptr @prte_strerror(i32 noundef -13)
  call void (i32, ptr, ...) @pmix_output(i32 noundef 0, ptr noundef @.str.6, ptr noundef %132, ptr noundef @.str.7, i32 noundef 695)
  br label %133

133:                                              ; preds = %131
  br label %134

134:                                              ; preds = %133
  store i32 -13, ptr %4, align 4
  store i32 1, ptr %20, align 4
  br label %217

135:                                              ; preds = %127
  %136 = load i64, ptr %14, align 8, !tbaa !143
  %137 = load i64, ptr %17, align 8, !tbaa !143
  %138 = add i64 %136, %137
  %139 = add i64 %138, 32
  store i64 %139, ptr %15, align 8, !tbaa !143
  %140 = load i64, ptr %15, align 8, !tbaa !143
  %141 = call noalias ptr @malloc(i64 noundef %140) #18
  store ptr %141, ptr %8, align 8, !tbaa !3
  %142 = load ptr, ptr %8, align 8, !tbaa !3
  %143 = icmp eq ptr null, %142
  br i1 %143, label %144, label %149

144:                                              ; preds = %135
  br label %145

145:                                              ; preds = %144
  %146 = call ptr @prte_strerror(i32 noundef -2)
  call void (i32, ptr, ...) @pmix_output(i32 noundef 0, ptr noundef @.str.6, ptr noundef %146, ptr noundef @.str.7, i32 noundef 704)
  br label %147

147:                                              ; preds = %145
  br label %148

148:                                              ; preds = %147
  store i32 -2, ptr %4, align 4
  store i32 1, ptr %20, align 4
  br label %217

149:                                              ; preds = %135
  %150 = load ptr, ptr %8, align 8, !tbaa !3
  %151 = load ptr, ptr %5, align 8, !tbaa !3
  %152 = call ptr @strcpy(ptr noundef %150, ptr noundef %151) #14
  %153 = load i64, ptr %12, align 8, !tbaa !143
  store i64 %153, ptr %10, align 8, !tbaa !143
  br label %154

154:                                              ; preds = %212, %149
  %155 = load i64, ptr %10, align 8, !tbaa !143
  %156 = load i64, ptr %13, align 8, !tbaa !143
  %157 = icmp ule i64 %155, %156
  br i1 %157, label %158, label %215

158:                                              ; preds = %154
  %159 = load ptr, ptr %8, align 8, !tbaa !3
  %160 = load i64, ptr %14, align 8, !tbaa !143
  %161 = getelementptr inbounds nuw i8, ptr %159, i64 %160
  store i8 0, ptr %161, align 1, !tbaa !41
  %162 = getelementptr inbounds [8192 x i8], ptr %9, i64 0, i64 0
  %163 = load i64, ptr %10, align 8, !tbaa !143
  %164 = call i32 (ptr, i64, ptr, ...) @snprintf(ptr noundef %162, i64 noundef 8191, ptr noundef @.str.43, i64 noundef %163) #14
  %165 = getelementptr inbounds [8192 x i8], ptr %9, i64 0, i64 0
  %166 = call i64 @strlen(ptr noundef %165) #16
  store i64 %166, ptr %16, align 8, !tbaa !143
  %167 = load i64, ptr %17, align 8, !tbaa !143
  %168 = icmp ult i64 %166, %167
  br i1 %168, label %169, label %190

169:                                              ; preds = %158
  %170 = load i64, ptr %14, align 8, !tbaa !143
  store i64 %170, ptr %11, align 8, !tbaa !143
  br label %171

171:                                              ; preds = %183, %169
  %172 = load i64, ptr %11, align 8, !tbaa !143
  %173 = load i64, ptr %14, align 8, !tbaa !143
  %174 = load i64, ptr %17, align 8, !tbaa !143
  %175 = load i64, ptr %16, align 8, !tbaa !143
  %176 = sub i64 %174, %175
  %177 = add i64 %173, %176
  %178 = icmp ult i64 %172, %177
  br i1 %178, label %179, label %186

179:                                              ; preds = %171
  %180 = load ptr, ptr %8, align 8, !tbaa !3
  %181 = load i64, ptr %11, align 8, !tbaa !143
  %182 = getelementptr inbounds nuw i8, ptr %180, i64 %181
  store i8 48, ptr %182, align 1, !tbaa !41
  br label %183

183:                                              ; preds = %179
  %184 = load i64, ptr %11, align 8, !tbaa !143
  %185 = add i64 %184, 1
  store i64 %185, ptr %11, align 8, !tbaa !143
  br label %171, !llvm.loop !151

186:                                              ; preds = %171
  %187 = load ptr, ptr %8, align 8, !tbaa !3
  %188 = load i64, ptr %11, align 8, !tbaa !143
  %189 = getelementptr inbounds nuw i8, ptr %187, i64 %188
  store i8 0, ptr %189, align 1, !tbaa !41
  br label %190

190:                                              ; preds = %186, %158
  %191 = load ptr, ptr %8, align 8, !tbaa !3
  %192 = getelementptr inbounds [8192 x i8], ptr %9, i64 0, i64 0
  %193 = call ptr @strcat(ptr noundef %191, ptr noundef %192) #14
  %194 = load ptr, ptr %7, align 8, !tbaa !145
  %195 = load ptr, ptr %8, align 8, !tbaa !3
  %196 = call i32 @PMIx_Argv_append_nosize(ptr noundef %194, ptr noundef %195)
  store i32 %196, ptr %19, align 4, !tbaa !30
  %197 = load i32, ptr %19, align 4, !tbaa !30
  %198 = icmp ne i32 0, %197
  br i1 %198, label %199, label %211

199:                                              ; preds = %190
  br label %200

200:                                              ; preds = %199
  %201 = load i32, ptr %19, align 4, !tbaa !30
  %202 = icmp ne i32 -43, %201
  br i1 %202, label %203, label %206

203:                                              ; preds = %200
  %204 = load i32, ptr %19, align 4, !tbaa !30
  %205 = call ptr @prte_strerror(i32 noundef %204)
  call void (i32, ptr, ...) @pmix_output(i32 noundef 0, ptr noundef @.str.6, ptr noundef %205, ptr noundef @.str.7, i32 noundef 723)
  br label %206

206:                                              ; preds = %203, %200
  br label %207

207:                                              ; preds = %206
  br label %208

208:                                              ; preds = %207
  %209 = load ptr, ptr %8, align 8, !tbaa !3
  call void @free(ptr noundef %209) #14
  %210 = load i32, ptr %19, align 4, !tbaa !30
  store i32 %210, ptr %4, align 4
  store i32 1, ptr %20, align 4
  br label %217

211:                                              ; preds = %190
  br label %212

212:                                              ; preds = %211
  %213 = load i64, ptr %10, align 8, !tbaa !143
  %214 = add i64 %213, 1
  store i64 %214, ptr %10, align 8, !tbaa !143
  br label %154, !llvm.loop !152

215:                                              ; preds = %154
  %216 = load ptr, ptr %8, align 8, !tbaa !3
  call void @free(ptr noundef %216) #14
  store i32 0, ptr %4, align 4
  store i32 1, ptr %20, align 4
  br label %217

217:                                              ; preds = %215, %208, %148, %134, %64
  call void @llvm.lifetime.end.p0(i64 4, ptr %19) #14
  call void @llvm.lifetime.end.p0(i64 1, ptr %18) #14
  call void @llvm.lifetime.end.p0(i64 8, ptr %17) #14
  call void @llvm.lifetime.end.p0(i64 8, ptr %16) #14
  call void @llvm.lifetime.end.p0(i64 8, ptr %15) #14
  call void @llvm.lifetime.end.p0(i64 8, ptr %14) #14
  call void @llvm.lifetime.end.p0(i64 8, ptr %13) #14
  call void @llvm.lifetime.end.p0(i64 8, ptr %12) #14
  call void @llvm.lifetime.end.p0(i64 8, ptr %11) #14
  call void @llvm.lifetime.end.p0(i64 8, ptr %10) #14
  call void @llvm.lifetime.end.p0(i64 8192, ptr %9) #14
  call void @llvm.lifetime.end.p0(i64 8, ptr %8) #14
  %218 = load i32, ptr %4, align 4
  ret i32 %218
}