; Function Attrs: nounwind uwtable
define internal fastcc noundef i32 @prte_ras_slurm_parse_range(ptr noundef nonnull readonly captures(none) %0, ptr noundef nonnull readonly captures(none) %1, ptr noundef nonnull %2) unnamed_addr #0 {
  %4 = alloca [8192 x i8], align 16
  call void @llvm.lifetime.start.p0(i64 8192, ptr nonnull %4) #20
  %5 = tail call i64 @strlen(ptr noundef nonnull dereferenceable(1) %1) #21
  %6 = tail call i64 @strlen(ptr noundef nonnull dereferenceable(1) %0) #21
  %.not109 = icmp eq i64 %5, 0
  br i1 %.not109, label %._crit_edge, label %.lr.ph

.lr.ph:                                           ; preds = %3
  %7 = tail call ptr @__ctype_b_loc() #22
  %8 = load ptr, ptr %7, align 8, !tbaa !125
  br label %9

9:                                                ; preds = %.lr.ph, %16
  %indvars.iv = phi i64 [ %5, %.lr.ph ], [ %indvars.iv.next, %16 ]
  %.06392 = phi i64 [ 0, %.lr.ph ], [ %17, %16 ]
  %10 = getelementptr inbounds nuw i8, ptr %1, i64 %.06392
  %11 = load i8, ptr %10, align 1, !tbaa !17
  %12 = sext i8 %11 to i64
  %13 = getelementptr inbounds i16, ptr %8, i64 %12
  %14 = load i16, ptr %13, align 2, !tbaa !127
  %15 = and i16 %14, 2048
  %.not = icmp eq i16 %15, 0
  br i1 %.not, label %16, label %18

16:                                               ; preds = %9
  %17 = add nuw i64 %.06392, 1
  %exitcond.not = icmp eq i64 %17, %5
  %indvars.iv.next = add i64 %indvars.iv, -1
  br i1 %exitcond.not, label %._crit_edge, label %9, !llvm.loop !128

18:                                               ; preds = %9
  %19 = getelementptr inbounds nuw i8, ptr %1, i64 %.06392
  %20 = tail call i64 @strtol(ptr noundef nonnull captures(none) %19, ptr noundef null, i32 noundef 10) #20
  %sext = shl i64 %20, 32
  %21 = ashr exact i64 %sext, 32
  %22 = icmp ult i64 %.06392, %5
  br i1 %22, label %.lr.ph96, label %.thread78

.lr.ph96:                                         ; preds = %18
  %23 = load ptr, ptr %7, align 8, !tbaa !125
  br label %25

._crit_edge:                                      ; preds = %16, %3
  %24 = tail call ptr @prte_strerror(i32 noundef -13) #20
  tail call void (i32, ptr, ...) @pmix_output(i32 noundef 0, ptr noundef nonnull @.str.6, ptr noundef %24, ptr noundef nonnull @.str.7, i32 noundef 663) #20
  br label %74

25:                                               ; preds = %.lr.ph96, %33
  %.06294 = phi i64 [ 0, %.lr.ph96 ], [ %35, %33 ]
  %.16493 = phi i64 [ %.06392, %.lr.ph96 ], [ %34, %33 ]
  %26 = getelementptr inbounds nuw i8, ptr %1, i64 %.16493
  %27 = load i8, ptr %26, align 1, !tbaa !17
  %28 = sext i8 %27 to i64
  %29 = getelementptr inbounds i16, ptr %23, i64 %28
  %30 = load i16, ptr %29, align 2, !tbaa !127
  %31 = and i16 %30, 2048
  %.not71 = icmp eq i16 %31, 0
  br i1 %.not71, label %.preheader84, label %33

.preheader84:                                     ; preds = %25
  %32 = icmp ult i64 %.16493, %5
  br i1 %32, label %.lr.ph98, label %._crit_edge99

33:                                               ; preds = %25
  %34 = add nuw i64 %.16493, 1
  %35 = add nuw i64 %.06294, 1
  %exitcond119.not = icmp eq i64 %35, %indvars.iv
  br i1 %exitcond119.not, label %.thread78, label %25, !llvm.loop !129

.lr.ph98:                                         ; preds = %.preheader84, %46
  %.297 = phi i64 [ %47, %46 ], [ %.16493, %.preheader84 ]
  %36 = getelementptr inbounds nuw i8, ptr %1, i64 %.297
  %37 = load i8, ptr %36, align 1, !tbaa !17
  %38 = sext i8 %37 to i64
  %39 = getelementptr inbounds i16, ptr %23, i64 %38
  %40 = load i16, ptr %39, align 2, !tbaa !127
  %41 = and i16 %40, 2048
  %.not73 = icmp eq i16 %41, 0
  br i1 %.not73, label %46, label %42

42:                                               ; preds = %.lr.ph98
  %43 = getelementptr inbounds nuw i8, ptr %1, i64 %.297
  %44 = tail call i64 @strtol(ptr noundef nonnull captures(none) %43, ptr noundef null, i32 noundef 10) #20
  %sext83 = shl i64 %44, 32
  %45 = ashr exact i64 %sext83, 32
  br label %.thread78

46:                                               ; preds = %.lr.ph98
  %47 = add i64 %.297, 1
  %exitcond120.not = icmp eq i64 %47, %5
  br i1 %exitcond120.not, label %._crit_edge99, label %.lr.ph98, !llvm.loop !130

._crit_edge99:                                    ; preds = %46, %.preheader84
  %48 = tail call ptr @prte_strerror(i32 noundef -13) #20
  tail call void (i32, ptr, ...) @pmix_output(i32 noundef 0, ptr noundef nonnull @.str.6, ptr noundef %48, ptr noundef nonnull @.str.7, i32 noundef 695) #20
  br label %74

.thread78:                                        ; preds = %33, %18, %42
  %.06288 = phi i64 [ %.06294, %42 ], [ 0, %18 ], [ %indvars.iv, %33 ]
  %.066.ph = phi i64 [ %45, %42 ], [ %21, %18 ], [ %21, %33 ]
  %49 = add i64 %6, 32
  %50 = add i64 %49, %.06288
  %51 = tail call noalias ptr @malloc(i64 noundef %50) #23
  %52 = icmp eq ptr %51, null
  br i1 %52, label %53, label %55

53:                                               ; preds = %.thread78
  %54 = tail call ptr @prte_strerror(i32 noundef -2) #20
  tail call void (i32, ptr, ...) @pmix_output(i32 noundef 0, ptr noundef nonnull @.str.6, ptr noundef %54, ptr noundef nonnull @.str.7, i32 noundef 704) #20
  br label %74

55:                                               ; preds = %.thread78
  %56 = tail call ptr @strcpy(ptr noundef nonnull dereferenceable(1) %51, ptr noundef nonnull dereferenceable(1) %0) #20
  %.not74104 = icmp ugt i64 %21, %.066.ph
  br i1 %.not74104, label %._crit_edge108, label %.lr.ph107

.lr.ph107:                                        ; preds = %55
  %57 = getelementptr i8, ptr %51, i64 %6
  %58 = add i64 %.06288, %6
  br label %59

59:                                               ; preds = %.lr.ph107, %72
  %.3105 = phi i64 [ %21, %.lr.ph107 ], [ %73, %72 ]
  store i8 0, ptr %57, align 1, !tbaa !17
  %60 = call i32 (ptr, i64, ptr, ...) @snprintf(ptr noundef nonnull dereferenceable(1) %4, i64 noundef 8191, ptr noundef nonnull @.str.43, i64 noundef %.3105) #20
  %61 = call i64 @strlen(ptr noundef nonnull dereferenceable(1) %4) #21
  %62 = icmp ult i64 %61, %.06288
  br i1 %62, label %.preheader, label %67

.preheader:                                       ; preds = %59
  %63 = sub i64 %58, %61
  %64 = icmp ult i64 %6, %63
  br i1 %64, label %.lr.ph101.preheader, label %._crit_edge102

.lr.ph101.preheader:                              ; preds = %.preheader
  %65 = sub i64 %.06288, %61
  tail call void @llvm.memset.p0.i64(ptr nonnull align 1 %57, i8 48, i64 %65, i1 false), !tbaa !17
  br label %._crit_edge102

._crit_edge102:                                   ; preds = %.lr.ph101.preheader, %.preheader
  %.065.lcssa = phi i64 [ %6, %.preheader ], [ %63, %.lr.ph101.preheader ]
  %66 = getelementptr inbounds nuw i8, ptr %51, i64 %.065.lcssa
  store i8 0, ptr %66, align 1, !tbaa !17
  br label %67

67:                                               ; preds = %._crit_edge102, %59
  %68 = call ptr @strcat(ptr noundef nonnull dereferenceable(1) %51, ptr noundef nonnull dereferenceable(1) %4) #20
  %69 = tail call i32 @PMIx_Argv_append_nosize(ptr noundef nonnull %2, ptr noundef nonnull %51) #20
  switch i32 %69, label %70 [
    i32 0, label %72
    i32 -43, label %.loopexit
  ]

70:                                               ; preds = %67
  %71 = tail call ptr @prte_strerror(i32 noundef %69) #20
  tail call void (i32, ptr, ...) @pmix_output(i32 noundef 0, ptr noundef nonnull @.str.6, ptr noundef %71, ptr noundef nonnull @.str.7, i32 noundef 723) #20
  br label %.loopexit

.loopexit:                                        ; preds = %67, %70
  tail call void @free(ptr noundef nonnull %51) #20
  br label %74

72:                                               ; preds = %67
  %73 = add i64 %.3105, 1
  %.not74 = icmp ugt i64 %73, %.066.ph
  br i1 %.not74, label %._crit_edge108, label %59, !llvm.loop !131

._crit_edge108:                                   ; preds = %72, %55
  tail call void @free(ptr noundef nonnull %51) #20
  br label %74

74:                                               ; preds = %._crit_edge108, %.loopexit, %53, %._crit_edge99, %._crit_edge
  %.0 = phi i32 [ -2, %53 ], [ %69, %.loopexit ], [ 0, %._crit_edge108 ], [ -13, %._crit_edge99 ], [ -13, %._crit_edge ]
  call void @llvm.lifetime.end.p0(i64 8192, ptr nonnull %4) #20
  ret i32 %.0
}